Certificate:
    Data:
        Version: 3 (0x2)
        Serial Number:
            8f:54:6a:1a:93:4c:26:0b
        Signature Algorithm: sha1WithRSAEncryption
        Issuer: C=US, ST=Alabama, O=Capitalytics, OU=bmck, CN=www.capitalytics.com/emailAddress=bmck@capitalytics.com
        Validity
            Not Before: Jun 12 21:28:49 2009 GMT
            Not After : Jun 11 21:28:49 2012 GMT
        Subject: C=US, ST=Alabama, O=Capitalytics, OU=bmck, CN=www.capitalytics.com/emailAddress=bmck@capitalytics.com
        Subject Public Key Info:
            Public Key Algorithm: rsaEncryption
            RSA Public Key: (1024 bit)
                Modulus (1024 bit):
                    00:fc:39:4a:2f:28:61:0f:4a:cb:67:ed:b5:c1:e7:
                    c3:28:6a:19:ca:03:26:2b:f3:f8:84:e7:8b:a3:7f:
                    e7:7e:1d:a7:2c:5f:19:01:47:ef:46:23:0f:f2:88:
                    cf:0e:65:e4:b1:89:2b:fa:28:57:c5:38:66:ab:73:
                    df:09:69:21:a4:75:92:72:36:43:c1:88:9d:c1:2f:
                    41:63:09:75:da:6d:05:5d:d4:2b:a1:5b:61:12:a3:
                    92:ea:95:16:be:6a:84:d5:93:b1:5b:80:5e:cd:8a:
                    15:c4:08:6c:99:bb:38:54:0c:6b:a3:6d:bb:59:38:
                    de:2c:65:66:58:67:ad:7f:d7
                Exponent: 65537 (0x10001)
        X509v3 extensions:
            X509v3 Subject Key Identifier: 
                99:BE:C7:8B:33:00:7C:B4:4C:EB:19:C3:3F:7D:B1:CF:41:B6:2D:B4
            X509v3 Authority Key Identifier: 
                keyid:99:BE:C7:8B:33:00:7C:B4:4C:EB:19:C3:3F:7D:B1:CF:41:B6:2D:B4
                DirName:/C=US/ST=Alabama/O=Capitalytics/OU=bmck/CN=www.capitalytics.com/emailAddress=bmck@capitalytics.com
                serial:8F:54:6A:1A:93:4C:26:0B

            X509v3 Basic Constraints: 
                CA:TRUE
    Signature Algorithm: sha1WithRSAEncryption
        a7:e9:f7:17:15:bf:f7:1f:56:97:64:bb:de:3f:8d:92:10:a2:
        b6:3b:d4:8f:b7:fd:17:d9:84:38:87:ca:cd:e6:74:f7:9a:55:
        a1:f2:77:fa:1a:13:c8:48:61:3a:7d:d6:1a:12:aa:bc:97:b9:
        f3:71:63:be:da:60:44:04:53:9f:d1:9b:67:90:10:e9:fc:e2:
        16:73:6b:7e:58:34:51:f7:89:94:6b:43:b5:db:f2:cd:70:53:
        7e:08:fa:e7:4d:4c:c2:ce:ee:3a:0d:80:93:74:a9:db:c8:e8:
        ab:62:5f:b0:84:03:33:8c:e9:ca:73:47:5d:f7:1e:f4:2c:fb:
        84:b3
-----BEGIN CERTIFICATE-----
MIIDhzCCAvCgAwIBAgIJAI9UahqTTCYLMA0GCSqGSIb3DQEBBQUAMIGKMQswCQYD
VQQGEwJVUzEQMA4GA1UECBMHQWxhYmFtYTEVMBMGA1UEChMMQ2FwaXRhbHl0aWNz
MQ0wCwYDVQQLEwRibWNrMR0wGwYDVQQDExR3d3cuY2FwaXRhbHl0aWNzLmNvbTEk
MCIGCSqGSIb3DQEJARYVYm1ja0BjYXBpdGFseXRpY3MuY29tMB4XDTA5MDYxMjIx
Mjg0OVoXDTEyMDYxMTIxMjg0OVowgYoxCzAJBgNVBAYTAlVTMRAwDgYDVQQIEwdB
bGFiYW1hMRUwEwYDVQQKEwxDYXBpdGFseXRpY3MxDTALBgNVBAsTBGJtY2sxHTAb
BgNVBAMTFHd3dy5jYXBpdGFseXRpY3MuY29tMSQwIgYJKoZIhvcNAQkBFhVibWNr
QGNhcGl0YWx5dGljcy5jb20wgZ8wDQYJKoZIhvcNAQEBBQADgY0AMIGJAoGBAPw5
Si8oYQ9Ky2fttcHnwyhqGcoDJivz+ITni6N/534dpyxfGQFH70YjD/KIzw5l5LGJ
K/ooV8U4Zqtz3wlpIaR1knI2Q8GIncEvQWMJddptBV3UK6FbYRKjkuqVFr5qhNWT
sVuAXs2KFcQIbJm7OFQMa6Ntu1k43ixlZlhnrX/XAgMBAAGjgfIwge8wHQYDVR0O
BBYEFJm+x4szAHy0TOsZwz99sc9Bti20MIG/BgNVHSMEgbcwgbSAFJm+x4szAHy0
TOsZwz99sc9Bti20oYGQpIGNMIGKMQswCQYDVQQGEwJVUzEQMA4GA1UECBMHQWxh
YmFtYTEVMBMGA1UEChMMQ2FwaXRhbHl0aWNzMQ0wCwYDVQQLEwRibWNrMR0wGwYD
VQQDExR3d3cuY2FwaXRhbHl0aWNzLmNvbTEkMCIGCSqGSIb3DQEJARYVYm1ja0Bj
YXBpdGFseXRpY3MuY29tggkAj1RqGpNMJgswDAYDVR0TBAUwAwEB/zANBgkqhkiG
9w0BAQUFAAOBgQCn6fcXFb/3H1aXZLveP42SEKK2O9SPt/0X2YQ4h8rN5nT3mlWh
8nf6GhPISGE6fdYaEqq8l7nzcWO+2mBEBFOf0ZtnkBDp/OIWc2t+WDRR94mUa0O1
2/LNcFN+CPrnTUzCzu46DYCTdKnbyOirYl+whAMzjOnKc0dd9x70LPuEsw==
-----END CERTIFICATE-----
