Certificate:
    Data:
        Version: 3 (0x2)
        Serial Number:
            8f:54:6a:1a:93:4c:26:0d
        Signature Algorithm: sha1WithRSAEncryption
        Issuer: C=US, ST=Alabama, O=Capitalytics, OU=bmck, CN=www.capitalytics.com/emailAddress=bmck@capitalytics.com
        Validity
            Not Before: Jun 12 21:38:38 2009 GMT
            Not After : Jun 12 21:38:38 2010 GMT
        Subject: C=US, ST=Alabama, L=Birmingham, O=Capitalytics, OU=client, CN=client.capitalytics.com/emailAddress=bmck@capitalytics.com
        Subject Public Key Info:
            Public Key Algorithm: rsaEncryption
            RSA Public Key: (1024 bit)
                Modulus (1024 bit):
                    00:e3:dc:ff:f4:9e:76:23:ee:f7:cd:71:13:07:f1:
                    0b:ec:6d:88:bf:a2:03:46:1d:1a:e5:cb:af:fd:b7:
                    40:48:f7:47:a3:aa:17:f1:8b:90:92:f7:f5:4f:f1:
                    1e:52:d3:ea:b9:c4:89:4d:d8:8c:d5:d0:c2:e2:67:
                    b3:ca:51:5f:21:66:c6:66:bf:7a:57:bc:d2:ab:cd:
                    f9:b2:3a:83:ca:ab:9b:52:77:89:74:f3:a4:90:13:
                    62:0f:84:cb:8b:a1:63:f1:dd:9d:2e:d9:6f:90:3f:
                    a0:86:f6:85:a9:cf:89:f4:be:f9:fb:0c:3f:a7:d4:
                    a0:c4:3b:22:ba:bb:ee:a4:2b
                Exponent: 65537 (0x10001)
        X509v3 extensions:
            X509v3 Basic Constraints: 
                CA:FALSE
            Netscape Comment: 
                OpenSSL Generated Certificate
            X509v3 Subject Key Identifier: 
                86:AD:CA:81:1B:4E:FF:B8:FB:6A:B0:CF:71:58:FA:F5:A3:C6:03:FC
            X509v3 Authority Key Identifier: 
                keyid:99:BE:C7:8B:33:00:7C:B4:4C:EB:19:C3:3F:7D:B1:CF:41:B6:2D:B4

    Signature Algorithm: sha1WithRSAEncryption
        34:52:58:80:f0:a0:eb:c7:5b:71:6d:78:c8:65:25:94:24:67:
        4b:78:57:0e:ff:54:a3:db:a6:ac:72:e6:25:ad:15:85:3b:39:
        6e:ff:8e:44:42:ac:56:85:c9:40:08:2a:6a:21:f4:4e:d6:35:
        83:e7:b8:a6:b8:b8:d8:89:c5:be:01:eb:2d:8f:ce:3b:aa:fd:
        ab:5a:94:ea:65:e8:cf:7d:71:f5:89:ee:8e:57:89:bb:3d:7e:
        c5:70:38:9c:34:1f:ed:e2:62:32:48:ee:b1:3a:46:0f:d5:11:
        63:23:7a:14:39:48:3e:e1:53:bc:2f:8a:be:01:e6:14:ea:37:
        17:f2
-----BEGIN CERTIFICATE-----
MIIDKTCCApKgAwIBAgIJAI9UahqTTCYNMA0GCSqGSIb3DQEBBQUAMIGKMQswCQYD
VQQGEwJVUzEQMA4GA1UECBMHQWxhYmFtYTEVMBMGA1UEChMMQ2FwaXRhbHl0aWNz
MQ0wCwYDVQQLEwRibWNrMR0wGwYDVQQDExR3d3cuY2FwaXRhbHl0aWNzLmNvbTEk
MCIGCSqGSIb3DQEJARYVYm1ja0BjYXBpdGFseXRpY3MuY29tMB4XDTA5MDYxMjIx
MzgzOFoXDTEwMDYxMjIxMzgzOFowgaQxCzAJBgNVBAYTAlVTMRAwDgYDVQQIEwdB
bGFiYW1hMRMwEQYDVQQHEwpCaXJtaW5naGFtMRUwEwYDVQQKEwxDYXBpdGFseXRp
Y3MxDzANBgNVBAsTBmNsaWVudDEgMB4GA1UEAxMXY2xpZW50LmNhcGl0YWx5dGlj
cy5jb20xJDAiBgkqhkiG9w0BCQEWFWJtY2tAY2FwaXRhbHl0aWNzLmNvbTCBnzAN
BgkqhkiG9w0BAQEFAAOBjQAwgYkCgYEA49z/9J52I+73zXETB/EL7G2Iv6IDRh0a
5cuv/bdASPdHo6oX8YuQkvf1T/EeUtPqucSJTdiM1dDC4mezylFfIWbGZr96V7zS
q835sjqDyqubUneJdPOkkBNiD4TLi6Fj8d2dLtlvkD+ghvaFqc+J9L75+ww/p9Sg
xDsiurvupCsCAwEAAaN7MHkwCQYDVR0TBAIwADAsBglghkgBhvhCAQ0EHxYdT3Bl
blNTTCBHZW5lcmF0ZWQgQ2VydGlmaWNhdGUwHQYDVR0OBBYEFIatyoEbTv+4+2qw
z3FY+vWjxgP8MB8GA1UdIwQYMBaAFJm+x4szAHy0TOsZwz99sc9Bti20MA0GCSqG
SIb3DQEBBQUAA4GBADRSWIDwoOvHW3FteMhlJZQkZ0t4Vw7/VKPbpqxy5iWtFYU7
OW7/jkRCrFaFyUAIKmoh9E7WNYPnuKa4uNiJxb4B6y2Pzjuq/atalOpl6M99cfWJ
7o5Xibs9fsVwOJw0H+3iYjJI7rE6Rg/VEWMjehQ5SD7hU7wvir4B5hTqNxfy
-----END CERTIFICATE-----
