Certificate:
    Data:
        Version: 3 (0x2)
        Serial Number:
            8f:54:6a:1a:93:4c:26:0c
        Signature Algorithm: sha1WithRSAEncryption
        Issuer: C=US, ST=Alabama, O=Capitalytics, OU=bmck, CN=www.capitalytics.com/emailAddress=bmck@capitalytics.com
        Validity
            Not Before: Jun 12 21:31:49 2009 GMT
            Not After : Jun 12 21:31:49 2010 GMT
        Subject: C=US, ST=Alabama, L=Birmingham, O=Capitalytics, OU=server, CN=server.capitalytics.com/emailAddress=bmck.capitalytics.com
        Subject Public Key Info:
            Public Key Algorithm: rsaEncryption
            RSA Public Key: (1024 bit)
                Modulus (1024 bit):
                    00:a1:40:89:4b:eb:ca:b9:a5:81:bf:51:07:6f:40:
                    68:b4:5d:d8:d8:cb:46:9f:72:7f:01:7b:e0:06:71:
                    42:8d:95:c1:2c:0c:f9:43:4b:b8:37:70:f7:0b:61:
                    91:2e:95:87:69:7e:e3:22:29:1b:a0:86:9a:1f:b7:
                    82:9f:00:b6:70:78:2a:42:5e:e1:4d:b1:f0:22:22:
                    26:71:84:ff:2e:08:e7:61:12:5b:3f:0b:ed:13:3a:
                    aa:1f:84:aa:cc:84:67:45:47:b0:4a:32:2f:ff:7b:
                    c8:b0:dd:5b:46:ad:ac:c0:0a:9f:96:d3:99:26:f0:
                    4f:a3:17:80:ee:b4:17:9e:21
                Exponent: 65537 (0x10001)
        X509v3 extensions:
            X509v3 Basic Constraints: 
                CA:FALSE
            Netscape Comment: 
                OpenSSL Generated Certificate
            X509v3 Subject Key Identifier: 
                DC:15:48:F2:50:4E:BC:5D:88:B7:F9:11:DC:86:BA:B7:E4:D8:47:ED
            X509v3 Authority Key Identifier: 
                keyid:99:BE:C7:8B:33:00:7C:B4:4C:EB:19:C3:3F:7D:B1:CF:41:B6:2D:B4

    Signature Algorithm: sha1WithRSAEncryption
        9f:1a:0e:d7:87:eb:e7:ad:ce:60:b1:2f:67:a1:ea:87:5f:61:
        8c:58:76:cf:8b:ee:ef:90:35:ce:a3:b6:82:0f:1c:40:b4:e4:
        b8:96:51:d3:d8:f6:63:27:e2:f7:46:6a:c5:6a:2c:38:7a:78:
        7c:78:48:96:70:18:a4:a5:32:77:9d:2f:f6:9f:bb:a7:a6:01:
        9a:59:2a:71:3b:3d:6e:47:1b:d9:9a:7a:97:0d:73:5a:64:f2:
        52:30:2c:a1:5b:48:29:72:93:eb:5d:45:15:9b:d0:2c:1d:ac:
        37:6d:59:c0:a0:1e:4a:72:1a:c4:29:66:cd:7e:12:23:5f:03:
        72:1c
-----BEGIN CERTIFICATE-----
MIIDKTCCApKgAwIBAgIJAI9UahqTTCYMMA0GCSqGSIb3DQEBBQUAMIGKMQswCQYD
VQQGEwJVUzEQMA4GA1UECBMHQWxhYmFtYTEVMBMGA1UEChMMQ2FwaXRhbHl0aWNz
MQ0wCwYDVQQLEwRibWNrMR0wGwYDVQQDExR3d3cuY2FwaXRhbHl0aWNzLmNvbTEk
MCIGCSqGSIb3DQEJARYVYm1ja0BjYXBpdGFseXRpY3MuY29tMB4XDTA5MDYxMjIx
MzE0OVoXDTEwMDYxMjIxMzE0OVowgaQxCzAJBgNVBAYTAlVTMRAwDgYDVQQIEwdB
bGFiYW1hMRMwEQYDVQQHEwpCaXJtaW5naGFtMRUwEwYDVQQKEwxDYXBpdGFseXRp
Y3MxDzANBgNVBAsTBnNlcnZlcjEgMB4GA1UEAxMXc2VydmVyLmNhcGl0YWx5dGlj
cy5jb20xJDAiBgkqhkiG9w0BCQEWFWJtY2suY2FwaXRhbHl0aWNzLmNvbTCBnzAN
BgkqhkiG9w0BAQEFAAOBjQAwgYkCgYEAoUCJS+vKuaWBv1EHb0BotF3Y2MtGn3J/
AXvgBnFCjZXBLAz5Q0u4N3D3C2GRLpWHaX7jIikboIaaH7eCnwC2cHgqQl7hTbHw
IiImcYT/LgjnYRJbPwvtEzqqH4SqzIRnRUewSjIv/3vIsN1bRq2swAqfltOZJvBP
oxeA7rQXniECAwEAAaN7MHkwCQYDVR0TBAIwADAsBglghkgBhvhCAQ0EHxYdT3Bl
blNTTCBHZW5lcmF0ZWQgQ2VydGlmaWNhdGUwHQYDVR0OBBYEFNwVSPJQTrxdiLf5
EdyGurfk2EftMB8GA1UdIwQYMBaAFJm+x4szAHy0TOsZwz99sc9Bti20MA0GCSqG
SIb3DQEBBQUAA4GBAJ8aDteH6+etzmCxL2eh6odfYYxYds+L7u+QNc6jtoIPHEC0
5LiWUdPY9mMn4vdGasVqLDh6eHx4SJZwGKSlMnedL/afu6emAZpZKnE7PW5HG9ma
epcNc1pk8lIwLKFbSClyk+tdRRWb0CwdrDdtWcCgHkpyGsQpZs1+EiNfA3Ic
-----END CERTIFICATE-----
